target datalayout = "e-m:e-p270:32:32-p271:32:32-p272:64:64-i64:64-i128:128-f80:128-n8:16:32:64-S128"
target triple = "x86_64-pc-linux-gnu"

%struct._GTypeInstance = type { ptr }
%struct._GTypeClass = type { i64 }

@.str.182 = private unnamed_addr constant [1 x i8] zeroinitializer, align 1

; Function Attrs: nounwind uwtable
define void @dt_gui_search_stop(ptr noundef %0, ptr noundef %1) #0 {
  %3 = alloca ptr, align 8
  %4 = alloca ptr, align 8
  %5 = alloca ptr, align 8
  %6 = alloca i64, align 8
  %7 = alloca i32, align 4
  %8 = alloca i32, align 4
  %9 = alloca ptr, align 8
  store ptr %0, ptr %3, align 8, !tbaa !325
  store ptr %1, ptr %4, align 8, !tbaa !6
  %10 = load ptr, ptr %4, align 8, !tbaa !6
  call void @gtk_widget_grab_focus(ptr noundef %10)
  %11 = load ptr, ptr %3, align 8, !tbaa !325
  %12 = call i64 @gtk_entry_get_type() #16
  %13 = call ptr @g_type_check_instance_cast(ptr noundef %11, i64 noundef %12)
  call void @gtk_entry_set_text(ptr noundef %13, ptr noundef @.str.182)
  call void @llvm.lifetime.start.p0(i64 8, ptr %5) #15
  %14 = load ptr, ptr %4, align 8, !tbaa !6
  store ptr %14, ptr %5, align 8, !tbaa !225
  call void @llvm.lifetime.start.p0(i64 8, ptr %6) #15
  %15 = call i64 @gtk_tree_view_get_type() #16
  store i64 %15, ptr %6, align 8, !tbaa !227
  call void @llvm.lifetime.start.p0(i64 4, ptr %7) #15
  %16 = load ptr, ptr %5, align 8, !tbaa !225
  %17 = icmp ne ptr %16, null
  br i1 %17, label %19, label %18

18:                                               ; preds = %2
  store i32 0, ptr %7, align 4, !tbaa !17
  br label %38

19:                                               ; preds = %2
  %20 = load ptr, ptr %5, align 8, !tbaa !225
  %21 = getelementptr inbounds nuw %struct._GTypeInstance, ptr %20, i32 0, i32 0
  %22 = load ptr, ptr %21, align 8, !tbaa !228
  %23 = icmp ne ptr %22, null
  br i1 %23, label %24, label %33

24:                                               ; preds = %19
  %25 = load ptr, ptr %5, align 8, !tbaa !225
  %26 = getelementptr inbounds nuw %struct._GTypeInstance, ptr %25, i32 0, i32 0
  %27 = load ptr, ptr %26, align 8, !tbaa !228
  %28 = getelementptr inbounds nuw %struct._GTypeClass, ptr %27, i32 0, i32 0
  %29 = load i64, ptr %28, align 8, !tbaa !231
  %30 = load i64, ptr %6, align 8, !tbaa !227
  %31 = icmp eq i64 %29, %30
  br i1 %31, label %32, label %33

32:                                               ; preds = %24
  store i32 1, ptr %7, align 4, !tbaa !17
  br label %37

33:                                               ; preds = %24, %19
  %34 = load ptr, ptr %5, align 8, !tbaa !225
  %35 = load i64, ptr %6, align 8, !tbaa !227
  %36 = call i32 @g_type_check_instance_is_a(ptr noundef %34, i64 noundef %35) #18
  store i32 %36, ptr %7, align 4, !tbaa !17
  br label %37

37:                                               ; preds = %33, %32
  br label %38

38:                                               ; preds = %37, %18
  %39 = load i32, ptr %7, align 4, !tbaa !17
  store i32 %39, ptr %8, align 4, !tbaa !17
  call void @llvm.lifetime.end.p0(i64 4, ptr %7) #15
  call void @llvm.lifetime.end.p0(i64 8, ptr %6) #15
  call void @llvm.lifetime.end.p0(i64 8, ptr %5) #15
  %40 = load i32, ptr %8, align 4, !tbaa !17
  %41 = icmp ne i32 %40, 0
  br i1 %41, label %42, label %52

42:                                               ; preds = %38
  call void @llvm.lifetime.start.p0(i64 8, ptr %9) #15
  store ptr null, ptr %9, align 8, !tbaa !327
  %43 = load ptr, ptr %4, align 8, !tbaa !6
  %44 = call i64 @gtk_tree_view_get_type() #16
  %45 = call ptr @g_type_check_instance_cast(ptr noundef %43, i64 noundef %44)
  call void @gtk_tree_view_get_cursor(ptr noundef %45, ptr noundef %9, ptr noundef null)
  %46 = load ptr, ptr %4, align 8, !tbaa !6
  %47 = call i64 @gtk_tree_view_get_type() #16
  %48 = call ptr @g_type_check_instance_cast(ptr noundef %46, i64 noundef %47)
  %49 = call ptr @gtk_tree_view_get_selection(ptr noundef %48)
  %50 = load ptr, ptr %9, align 8, !tbaa !327
  call void @gtk_tree_selection_select_path(ptr noundef %49, ptr noundef %50)
  %51 = load ptr, ptr %9, align 8, !tbaa !327
  call void @gtk_tree_path_free(ptr noundef %51)
  call void @llvm.lifetime.end.p0(i64 8, ptr %9) #15
  br label %52

52:                                               ; preds = %42, %38
  ret void
}