; Function Attrs: nounwind uwtable
define void @dt_gui_search_stop(ptr noundef %0, ptr noundef %1) local_unnamed_addr #0 {
  %3 = alloca ptr, align 8
  tail call void @gtk_widget_grab_focus(ptr noundef %1) #18
  %4 = tail call i64 @gtk_entry_get_type() #19
  %5 = tail call ptr @g_type_check_instance_cast(ptr noundef %0, i64 noundef %4) #18
  tail call void @gtk_entry_set_text(ptr noundef %5, ptr noundef nonnull @.str.182) #18
  %6 = tail call i64 @gtk_tree_view_get_type() #19
  %.not = icmp eq ptr %1, null
  br i1 %.not, label %.critedge, label %7

7:                                                ; preds = %2
  %8 = load ptr, ptr %1, align 8, !tbaa !77
  %.not14 = icmp eq ptr %8, null
  br i1 %.not14, label %12, label %9

9:                                                ; preds = %7
  %10 = load i64, ptr %8, align 8, !tbaa !80
  %11 = icmp eq i64 %10, %6
  br i1 %11, label %.critedge17, label %12

12:                                               ; preds = %9, %7
  %13 = tail call i32 @g_type_check_instance_is_a(ptr noundef nonnull %1, i64 noundef %6) #20
  %14 = icmp eq i32 %13, 0
  br i1 %14, label %.critedge, label %.critedge17

.critedge17:                                      ; preds = %9, %12
  call void @llvm.lifetime.start.p0(i64 8, ptr nonnull %3) #18
  store ptr null, ptr %3, align 8, !tbaa !250
  %15 = tail call ptr @g_type_check_instance_cast(ptr noundef nonnull %1, i64 noundef %6) #18
  call void @gtk_tree_view_get_cursor(ptr noundef %15, ptr noundef nonnull %3, ptr noundef null) #18
  %16 = call ptr @g_type_check_instance_cast(ptr noundef nonnull %1, i64 noundef %6) #18
  %17 = call ptr @gtk_tree_view_get_selection(ptr noundef %16) #18
  %18 = load ptr, ptr %3, align 8, !tbaa !250
  call void @gtk_tree_selection_select_path(ptr noundef %17, ptr noundef %18) #18
  %19 = load ptr, ptr %3, align 8, !tbaa !250
  call void @gtk_tree_path_free(ptr noundef %19) #18
  call void @llvm.lifetime.end.p0(i64 8, ptr nonnull %3) #18
  br label %.critedge

.critedge:                                        ; preds = %2, %.critedge17, %12
  ret void
}